target datalayout = "e-m:e-p270:32:32-p271:32:32-p272:64:64-i64:64-i128:128-f80:128-n8:16:32:64-S128"
target triple = "x86_64-pc-linux-gnu"

%union.pthread_mutex_t = type { %struct.__pthread_mutex_s }
%struct.__pthread_mutex_s = type { i32, i32, i32, i32, i32, i16, i16, %struct.__pthread_internal_list }
%struct.__pthread_internal_list = type { ptr, ptr }
%struct.slurm_conf_t = type { i64, ptr, i16, ptr, ptr, ptr, ptr, ptr, i16, ptr, ptr, ptr, ptr, ptr, ptr, ptr, i16, ptr, ptr, ptr, ptr, i16, ptr, ptr, ptr, i64, ptr, ptr, ptr, ptr, i16, ptr, ptr, i16, i32, ptr, i32, ptr, i32, i32, ptr, ptr, i64, i64, ptr, i16, i16, ptr, i32, i32, ptr, i32, ptr, i32, i16, i16, i16, ptr, i16, i16, ptr, ptr, i32, i16, i16, ptr, i32, i16, ptr, ptr, ptr, ptr, i16, ptr, ptr, ptr, ptr, i32, ptr, ptr, ptr, ptr, i16, i16, ptr, i32, i32, i32, i16, i16, ptr, ptr, i16, ptr, ptr, i32, i32, i32, i32, i32, i64, i32, i32, i16, ptr, ptr, i32, ptr, ptr, ptr, i16, i32, ptr, ptr, i16, ptr, ptr, i32, i16, ptr, ptr, ptr, ptr, i32, i32, i16, i16, i32, ptr, i16, ptr, i32, i32, i32, i32, i32, i32, ptr, i16, ptr, ptr, i32, i16, ptr, i32, i16, i16, ptr, ptr, ptr, i16, ptr, ptr, ptr, ptr, i16, i16, ptr, i16, ptr, i16, ptr, i16, ptr, i16, ptr, ptr, ptr, ptr, i16, ptr, ptr, ptr, i32, ptr, i32, ptr, ptr, i16, ptr, ptr, i32, i16, ptr, ptr, i16, i16, ptr, i16, ptr, ptr, ptr, i32, ptr, i16, i16, ptr, ptr, ptr, ptr, ptr, ptr, ptr, ptr, i16, i32, i16, ptr, ptr, ptr, ptr, i32, ptr, ptr, ptr, i16, ptr, ptr, ptr, i16, ptr, i16, ptr, i16, i16, ptr }
%struct._plugin_args = type { ptr, ptr }
%struct.slurm_select_ops_t = type { ptr, ptr, ptr, ptr, ptr, ptr, ptr, ptr, ptr, ptr, ptr, ptr, ptr, ptr, ptr, ptr, ptr, ptr, ptr, ptr, ptr, ptr, ptr, ptr, ptr, ptr, ptr, ptr, ptr, ptr, ptr, ptr }
%struct.plugin_context_t = type { ptr, ptr, ptr }

@.str.4 = private unnamed_addr constant [7 x i8] c"select\00", align 1
@select_context_lock = internal global %union.pthread_mutex_t zeroinitializer, align 8
@.str.5 = private unnamed_addr constant [29 x i8] c"%s: pthread_mutex_lock(): %m\00", align 1
@__func__.select_g_init = private unnamed_addr constant [14 x i8] c"select_g_init\00", align 1
@select_context = internal global ptr null, align 8
@select_context_cnt = internal global i32 -1, align 4
@slurm_conf = external global %struct.slurm_conf_t, align 8
@.str.6 = private unnamed_addr constant [9 x i8] c"select.c\00", align 1
@ops = internal global ptr null, align 8
@select_context_default = internal global i32 -1, align 4
@.str.7 = private unnamed_addr constant [25 x i8] c"Can't find plugin for %s\00", align 1
@.str.8 = private unnamed_addr constant [52 x i8] c"SelectPlugins: Duplicate plugin_id %u for %s and %s\00", align 1
@.str.9 = private unnamed_addr constant [46 x i8] c"SelectPlugins: Invalid plugin_id %u (<100) %s\00", align 1
@.str.10 = private unnamed_addr constant [31 x i8] c"%s: pthread_mutex_unlock(): %m\00", align 1
@working_cluster_rec = external global ptr, align 8
@.str.11 = private unnamed_addr constant [85 x i8] c"Invalid SelectTypeParameters for %s: %s (%u), it can't contain CR_(CPU|CORE|SOCKET).\00", align 1

; Function Attrs: nounwind uwtable
define dso_local i32 @select_running_linear_based() #0 {
  %1 = alloca i32, align 4
  call void @llvm.lifetime.start.p0(i64 4, ptr %1) #7
  store i32 0, ptr %1, align 4
  %2 = load ptr, ptr @ops, align 8
  %3 = load i32, ptr @select_context_default, align 4
  %4 = sext i32 %3 to i64
  %5 = getelementptr inbounds %struct.slurm_select_ops_t, ptr %2, i64 %4
  %6 = getelementptr inbounds nuw %struct.slurm_select_ops_t, ptr %5, i32 0, i32 0
  %7 = load ptr, ptr %6, align 8
  %8 = load i32, ptr %7, align 4
  switch i32 %8, label %10 [
    i32 102, label %9
  ]

9:                                                ; preds = %0
  store i32 1, ptr %1, align 4
  br label %11

10:                                               ; preds = %0
  store i32 0, ptr %1, align 4
  br label %11

11:                                               ; preds = %10, %9
  %12 = load i32, ptr %1, align 4
  call void @llvm.lifetime.end.p0(i64 4, ptr %1) #7
  ret i32 %12
}

; Function Attrs: nounwind uwtable
define dso_local i32 @select_g_init(i1 noundef zeroext %0) #0 {
  %2 = alloca i8, align 1
  %3 = alloca i32, align 4
  %4 = alloca i32, align 4
  %5 = alloca i32, align 4
  %6 = alloca i32, align 4
  %7 = alloca ptr, align 8
  %8 = alloca ptr, align 8
  %9 = alloca %struct._plugin_args, align 8
  %10 = alloca i32, align 4
  %11 = alloca i32, align 4
  %12 = alloca i16, align 2
  %13 = zext i1 %0 to i8
  store i8 %13, ptr %2, align 1
  call void @llvm.lifetime.start.p0(i64 4, ptr %3) #7
  store i32 0, ptr %3, align 4
  call void @llvm.lifetime.start.p0(i64 4, ptr %4) #7
  call void @llvm.lifetime.start.p0(i64 4, ptr %5) #7
  call void @llvm.lifetime.start.p0(i64 4, ptr %6) #7
  call void @llvm.lifetime.start.p0(i64 8, ptr %7) #7
  store ptr @.str.4, ptr %7, align 8
  call void @llvm.lifetime.start.p0(i64 8, ptr %8) #7
  store ptr null, ptr %8, align 8
  call void @llvm.lifetime.start.p0(i64 16, ptr %9) #7
  call void @llvm.memset.p0.i64(ptr align 8 %9, i8 0, i64 16, i1 false)
  br label %14

14:                                               ; preds = %1
  call void @llvm.lifetime.start.p0(i64 4, ptr %10) #7
  %15 = call i32 @pthread_mutex_lock(ptr noundef @select_context_lock) #7
  store i32 %15, ptr %10, align 4
  %16 = load i32, ptr %10, align 4
  %17 = icmp ne i32 %16, 0
  br i1 %17, label %18, label %21

18:                                               ; preds = %14
  %19 = load i32, ptr %10, align 4
  %20 = call ptr @__errno_location() #8
  store i32 %19, ptr %20, align 4
  call void (ptr, ...) @fatal_abort(ptr noundef @.str.5, ptr noundef @__func__.select_g_init) #9
  unreachable

21:                                               ; preds = %14
  call void @llvm.lifetime.end.p0(i64 4, ptr %10) #7
  br label %22

22:                                               ; preds = %21
  br label %23

23:                                               ; preds = %22
  %24 = load ptr, ptr @select_context, align 8
  %25 = icmp ne ptr %24, null
  br i1 %25, label %26, label %27

26:                                               ; preds = %23
  br label %146

27:                                               ; preds = %23
  store i32 0, ptr @select_context_cnt, align 4
  %28 = load ptr, ptr %7, align 8
  %29 = getelementptr inbounds nuw %struct._plugin_args, ptr %9, i32 0, i32 0
  store ptr %28, ptr %29, align 8
  %30 = load ptr, ptr getelementptr inbounds nuw (%struct.slurm_conf_t, ptr @slurm_conf, i32 0, i32 167), align 8
  %31 = getelementptr inbounds nuw %struct._plugin_args, ptr %9, i32 0, i32 1
  store ptr %30, ptr %31, align 8
  %32 = load i8, ptr %2, align 1, !range !12, !noundef !13
  %33 = trunc i8 %32 to i1
  br i1 %33, label %34, label %39

34:                                               ; preds = %27
  %35 = call ptr @list_create(ptr noundef @xfree_ptr)
  store ptr %35, ptr %8, align 8
  %36 = load ptr, ptr %8, align 8
  %37 = load ptr, ptr getelementptr inbounds nuw (%struct.slurm_conf_t, ptr @slurm_conf, i32 0, i32 167), align 8
  %38 = call ptr @xstrdup(ptr noundef %37)
  call void @list_append(ptr noundef %36, ptr noundef %38)
  br label %42

39:                                               ; preds = %27
  %40 = load ptr, ptr %7, align 8
  %41 = call ptr @plugin_get_plugins_of_type(ptr noundef %40)
  store ptr %41, ptr %8, align 8
  br label %42

42:                                               ; preds = %39, %34
  %43 = load ptr, ptr %8, align 8
  %44 = icmp ne ptr %43, null
  br i1 %44, label %45, label %58

45:                                               ; preds = %42
  %46 = load ptr, ptr %8, align 8
  %47 = call i32 @list_count(ptr noundef %46)
  store i32 %47, ptr %6, align 4
  %48 = icmp ne i32 %47, 0
  br i1 %48, label %49, label %58

49:                                               ; preds = %45
  %50 = load i32, ptr %6, align 4
  %51 = sext i32 %50 to i64
  %52 = call ptr @slurm_xcalloc(i64 noundef %51, i64 noundef 256, i1 noundef zeroext true, i1 noundef zeroext false, ptr noundef @.str.6, i32 noundef 261, ptr noundef @__func__.select_g_init)
  store ptr %52, ptr @ops, align 8
  %53 = load i32, ptr %6, align 4
  %54 = sext i32 %53 to i64
  %55 = call ptr @slurm_xcalloc(i64 noundef %54, i64 noundef 8, i1 noundef zeroext true, i1 noundef zeroext false, ptr noundef @.str.6, i32 noundef 263, ptr noundef @__func__.select_g_init)
  store ptr %55, ptr @select_context, align 8
  %56 = load ptr, ptr %8, align 8
  %57 = call i32 @list_for_each(ptr noundef %56, ptr noundef @_load_plugins, ptr noundef %9)
  br label %58

58:                                               ; preds = %49, %45, %42
  %59 = load i32, ptr @select_context_default, align 4
  %60 = icmp eq i32 %59, -1
  br i1 %60, label %61, label %63

61:                                               ; preds = %58
  %62 = load ptr, ptr getelementptr inbounds nuw (%struct.slurm_conf_t, ptr @slurm_conf, i32 0, i32 167), align 8
  call void (ptr, ...) @fatal(ptr noundef @.str.7, ptr noundef %62) #9
  unreachable

63:                                               ; preds = %58
  store i32 0, ptr %4, align 4
  br label %64

64:                                               ; preds = %142, %63
  %65 = load i32, ptr %4, align 4
  %66 = load i32, ptr @select_context_cnt, align 4
  %67 = icmp slt i32 %65, %66
  br i1 %67, label %68, label %145

68:                                               ; preds = %64
  %69 = load i32, ptr %4, align 4
  %70 = add nsw i32 %69, 1
  store i32 %70, ptr %5, align 4
  br label %71

71:                                               ; preds = %114, %68
  %72 = load i32, ptr %5, align 4
  %73 = load i32, ptr @select_context_cnt, align 4
  %74 = icmp slt i32 %72, %73
  br i1 %74, label %75, label %117

75:                                               ; preds = %71
  %76 = load ptr, ptr @ops, align 8
  %77 = load i32, ptr %4, align 4
  %78 = sext i32 %77 to i64
  %79 = getelementptr inbounds %struct.slurm_select_ops_t, ptr %76, i64 %78
  %80 = getelementptr inbounds nuw %struct.slurm_select_ops_t, ptr %79, i32 0, i32 0
  %81 = load ptr, ptr %80, align 8
  %82 = load i32, ptr %81, align 4
  %83 = load ptr, ptr @ops, align 8
  %84 = load i32, ptr %5, align 4
  %85 = sext i32 %84 to i64
  %86 = getelementptr inbounds %struct.slurm_select_ops_t, ptr %83, i64 %85
  %87 = getelementptr inbounds nuw %struct.slurm_select_ops_t, ptr %86, i32 0, i32 0
  %88 = load ptr, ptr %87, align 8
  %89 = load i32, ptr %88, align 4
  %90 = icmp ne i32 %82, %89
  br i1 %90, label %91, label %92

91:                                               ; preds = %75
  br label %114

92:                                               ; preds = %75
  %93 = load ptr, ptr @ops, align 8
  %94 = load i32, ptr %4, align 4
  %95 = sext i32 %94 to i64
  %96 = getelementptr inbounds %struct.slurm_select_ops_t, ptr %93, i64 %95
  %97 = getelementptr inbounds nuw %struct.slurm_select_ops_t, ptr %96, i32 0, i32 0
  %98 = load ptr, ptr %97, align 8
  %99 = load i32, ptr %98, align 4
  %100 = load ptr, ptr @select_context, align 8
  %101 = load i32, ptr %4, align 4
  %102 = sext i32 %101 to i64
  %103 = getelementptr inbounds ptr, ptr %100, i64 %102
  %104 = load ptr, ptr %103, align 8
  %105 = getelementptr inbounds nuw %struct.plugin_context_t, ptr %104, i32 0, i32 2
  %106 = load ptr, ptr %105, align 8
  %107 = load ptr, ptr @select_context, align 8
  %108 = load i32, ptr %5, align 4
  %109 = sext i32 %108 to i64
  %110 = getelementptr inbounds ptr, ptr %107, i64 %109
  %111 = load ptr, ptr %110, align 8
  %112 = getelementptr inbounds nuw %struct.plugin_context_t, ptr %111, i32 0, i32 2
  %113 = load ptr, ptr %112, align 8
  call void (ptr, ...) @fatal(ptr noundef @.str.8, i32 noundef %99, ptr noundef %106, ptr noundef %113) #9
  unreachable

114:                                              ; preds = %91
  %115 = load i32, ptr %5, align 4
  %116 = add nsw i32 %115, 1
  store i32 %116, ptr %5, align 4
  br label %71, !llvm.loop !14

117:                                              ; preds = %71
  %118 = load ptr, ptr @ops, align 8
  %119 = load i32, ptr %4, align 4
  %120 = sext i32 %119 to i64
  %121 = getelementptr inbounds %struct.slurm_select_ops_t, ptr %118, i64 %120
  %122 = getelementptr inbounds nuw %struct.slurm_select_ops_t, ptr %121, i32 0, i32 0
  %123 = load ptr, ptr %122, align 8
  %124 = load i32, ptr %123, align 4
  %125 = icmp ult i32 %124, 100
  br i1 %125, label %126, label %141

126:                                              ; preds = %117
  %127 = load ptr, ptr @ops, align 8
  %128 = load i32, ptr %4, align 4
  %129 = sext i32 %128 to i64
  %130 = getelementptr inbounds %struct.slurm_select_ops_t, ptr %127, i64 %129
  %131 = getelementptr inbounds nuw %struct.slurm_select_ops_t, ptr %130, i32 0, i32 0
  %132 = load ptr, ptr %131, align 8
  %133 = load i32, ptr %132, align 4
  %134 = load ptr, ptr @select_context, align 8
  %135 = load i32, ptr %4, align 4
  %136 = sext i32 %135 to i64
  %137 = getelementptr inbounds ptr, ptr %134, i64 %136
  %138 = load ptr, ptr %137, align 8
  %139 = getelementptr inbounds nuw %struct.plugin_context_t, ptr %138, i32 0, i32 2
  %140 = load ptr, ptr %139, align 8
  call void (ptr, ...) @fatal(ptr noundef @.str.9, i32 noundef %133, ptr noundef %140) #9
  unreachable

141:                                              ; preds = %117
  br label %142

142:                                              ; preds = %141
  %143 = load i32, ptr %4, align 4
  %144 = add nsw i32 %143, 1
  store i32 %144, ptr %4, align 4
  br label %64, !llvm.loop !15

145:                                              ; preds = %64
  br label %146

146:                                              ; preds = %145, %26
  br label %147

147:                                              ; preds = %146
  call void @llvm.lifetime.start.p0(i64 4, ptr %11) #7
  %148 = call i32 @pthread_mutex_unlock(ptr noundef @select_context_lock) #7
  store i32 %148, ptr %11, align 4
  %149 = load i32, ptr %11, align 4
  %150 = icmp ne i32 %149, 0
  br i1 %150, label %151, label %154

151:                                              ; preds = %147
  %152 = load i32, ptr %11, align 4
  %153 = call ptr @__errno_location() #8
  store i32 %152, ptr %153, align 4
  call void (ptr, ...) @fatal_abort(ptr noundef @.str.10, ptr noundef @__func__.select_g_init) #9
  unreachable

154:                                              ; preds = %147
  call void @llvm.lifetime.end.p0(i64 4, ptr %11) #7
  br label %155

155:                                              ; preds = %154
  br label %156

156:                                              ; preds = %155
  %157 = load ptr, ptr @working_cluster_rec, align 8
  %158 = icmp ne ptr %157, null
  br i1 %158, label %176, label %159

159:                                              ; preds = %156
  %160 = call i32 @select_running_linear_based()
  %161 = icmp ne i32 %160, 0
  br i1 %161, label %162, label %175

162:                                              ; preds = %159
  call void @llvm.lifetime.start.p0(i64 2, ptr %12) #7
  %163 = load i16, ptr getelementptr inbounds nuw (%struct.slurm_conf_t, ptr @slurm_conf, i32 0, i32 169), align 8
  store i16 %163, ptr %12, align 2
  %164 = load i16, ptr %12, align 2
  %165 = zext i16 %164 to i32
  %166 = and i32 %165, 7
  %167 = icmp ne i32 %166, 0
  br i1 %167, label %168, label %174

168:                                              ; preds = %162
  %169 = load ptr, ptr getelementptr inbounds nuw (%struct.slurm_conf_t, ptr @slurm_conf, i32 0, i32 167), align 8
  %170 = load i16, ptr %12, align 2
  %171 = call ptr @select_type_param_string(i16 noundef zeroext %170)
  %172 = load i16, ptr %12, align 2
  %173 = zext i16 %172 to i32
  call void (ptr, ...) @fatal(ptr noundef @.str.11, ptr noundef %169, ptr noundef %171, i32 noundef %173) #9
  unreachable

174:                                              ; preds = %162
  call void @llvm.lifetime.end.p0(i64 2, ptr %12) #7
  br label %175

175:                                              ; preds = %174, %159
  br label %176

176:                                              ; preds = %175, %156
  br label %177

177:                                              ; preds = %176
  %178 = load ptr, ptr %8, align 8
  %179 = icmp ne ptr %178, null
  br i1 %179, label %180, label %182

180:                                              ; preds = %177
  %181 = load ptr, ptr %8, align 8
  call void @list_destroy(ptr noundef %181)
  br label %182

182:                                              ; preds = %180, %177
  store ptr null, ptr %8, align 8
  br label %183

183:                                              ; preds = %182
  br label %184

184:                                              ; preds = %183
  %185 = load i32, ptr %3, align 4
  call void @llvm.lifetime.end.p0(i64 16, ptr %9) #7
  call void @llvm.lifetime.end.p0(i64 8, ptr %8) #7
  call void @llvm.lifetime.end.p0(i64 8, ptr %7) #7
  call void @llvm.lifetime.end.p0(i64 4, ptr %6) #7
  call void @llvm.lifetime.end.p0(i64 4, ptr %5) #7
  call void @llvm.lifetime.end.p0(i64 4, ptr %4) #7
  call void @llvm.lifetime.end.p0(i64 4, ptr %3) #7
  ret i32 %185
}