; Function Attrs: nounwind uwtable
define dso_local noundef i32 @select_g_init(i1 noundef zeroext %0) local_unnamed_addr #0 {
  %2 = alloca %struct._plugin_args, align 8
  call void @llvm.lifetime.start.p0(i64 16, ptr nonnull %2) #15
  call void @llvm.memset.p0.i64(ptr noundef nonnull align 8 dereferenceable(16) %2, i8 0, i64 16, i1 false)
  %3 = tail call i32 @pthread_mutex_lock(ptr noundef nonnull @select_context_lock) #15
  %.not = icmp eq i32 %3, 0
  br i1 %.not, label %6, label %4

4:                                                ; preds = %1
  %5 = tail call ptr @__errno_location() #16
  store i32 %3, ptr %5, align 4
  tail call void (ptr, ...) @fatal_abort(ptr noundef nonnull @.str.5, ptr noundef nonnull @__func__.select_g_init) #17
  unreachable

6:                                                ; preds = %1
  %7 = load ptr, ptr @select_context, align 8
  %.not38 = icmp eq ptr %7, null
  br i1 %.not38, label %8, label %.loopexit

8:                                                ; preds = %6
  store i32 0, ptr @select_context_cnt, align 4
  store ptr @.str.4, ptr %2, align 8
  %9 = load ptr, ptr getelementptr inbounds nuw (i8, ptr @slurm_conf, i64 1104), align 8
  %10 = getelementptr inbounds nuw i8, ptr %2, i64 8
  store ptr %9, ptr %10, align 8
  br i1 %0, label %11, label %15

11:                                               ; preds = %8
  %12 = tail call ptr @list_create(ptr noundef nonnull @xfree_ptr) #15
  %13 = load ptr, ptr getelementptr inbounds nuw (i8, ptr @slurm_conf, i64 1104), align 8
  %14 = tail call ptr @xstrdup(ptr noundef %13) #15
  tail call void @list_append(ptr noundef %12, ptr noundef %14) #15
  br label %17

15:                                               ; preds = %8
  %16 = tail call ptr @plugin_get_plugins_of_type(ptr noundef nonnull @.str.4) #15
  br label %17

17:                                               ; preds = %15, %11
  %.032 = phi ptr [ %12, %11 ], [ %16, %15 ]
  %.not39 = icmp eq ptr %.032, null
  br i1 %.not39, label %25, label %18

18:                                               ; preds = %17
  %19 = tail call i32 @list_count(ptr noundef nonnull %.032) #15
  %.not40 = icmp eq i32 %19, 0
  br i1 %.not40, label %25, label %20

20:                                               ; preds = %18
  %21 = sext i32 %19 to i64
  %22 = tail call ptr @slurm_xcalloc(i64 noundef %21, i64 noundef 256, i1 noundef zeroext true, i1 noundef zeroext false, ptr noundef nonnull @.str.6, i32 noundef 261, ptr noundef nonnull @__func__.select_g_init) #15
  store ptr %22, ptr @ops, align 8
  %23 = tail call ptr @slurm_xcalloc(i64 noundef %21, i64 noundef 8, i1 noundef zeroext true, i1 noundef zeroext false, ptr noundef nonnull @.str.6, i32 noundef 263, ptr noundef nonnull @__func__.select_g_init) #15
  store ptr %23, ptr @select_context, align 8
  %24 = call i32 @list_for_each(ptr noundef nonnull %.032, ptr noundef nonnull @_load_plugins, ptr noundef nonnull %2) #15
  br label %25

25:                                               ; preds = %20, %18, %17
  %26 = load i32, ptr @select_context_default, align 4
  %27 = icmp eq i32 %26, -1
  br i1 %27, label %30, label %.preheader

.preheader:                                       ; preds = %25
  %28 = load i32, ptr @select_context_cnt, align 4
  %29 = load ptr, ptr @ops, align 8
  %smax = call i32 @llvm.smax.i32(i32 %28, i32 0)
  %wide.trip.count = zext nneg i32 %smax to i64
  br label %32

30:                                               ; preds = %25
  %31 = load ptr, ptr getelementptr inbounds nuw (i8, ptr @slurm_conf, i64 1104), align 8
  call void (ptr, ...) @fatal(ptr noundef nonnull @.str.7, ptr noundef %31) #17
  unreachable

32:                                               ; preds = %.preheader, %._crit_edge
  %indvars.iv60 = phi i64 [ 0, %.preheader ], [ %indvars.iv.next61, %._crit_edge ]
  %indvars.iv = phi i64 [ 1, %.preheader ], [ %indvars.iv.next, %._crit_edge ]
  %exitcond63.not = icmp eq i64 %indvars.iv60, %wide.trip.count
  br i1 %exitcond63.not, label %.loopexit, label %33

33:                                               ; preds = %32
  %indvars.iv.next61 = add nuw nsw i64 %indvars.iv60, 1
  %34 = trunc nuw i64 %indvars.iv.next61 to i32
  %35 = icmp sgt i32 %28, %34
  %36 = getelementptr inbounds nuw %struct.slurm_select_ops_t, ptr %29, i64 %indvars.iv60
  %37 = load ptr, ptr %36, align 8
  %38 = load i32, ptr %37, align 4
  br i1 %35, label %.lr.ph, label %._crit_edge

39:                                               ; preds = %.lr.ph
  %indvars.iv.next58 = add nuw nsw i64 %indvars.iv57, 1
  %lftr.wideiv = trunc i64 %indvars.iv.next58 to i32
  %exitcond.not = icmp eq i32 %28, %lftr.wideiv
  br i1 %exitcond.not, label %._crit_edge, label %.lr.ph, !llvm.loop !12

.lr.ph:                                           ; preds = %33, %39
  %indvars.iv57 = phi i64 [ %indvars.iv.next58, %39 ], [ %indvars.iv, %33 ]
  %40 = getelementptr inbounds nuw %struct.slurm_select_ops_t, ptr %29, i64 %indvars.iv57
  %41 = load ptr, ptr %40, align 8
  %42 = load i32, ptr %41, align 4
  %.not41 = icmp eq i32 %38, %42
  br i1 %.not41, label %43, label %39

43:                                               ; preds = %.lr.ph
  %44 = load ptr, ptr @select_context, align 8
  %45 = getelementptr inbounds nuw ptr, ptr %44, i64 %indvars.iv60
  %46 = load ptr, ptr %45, align 8
  %47 = getelementptr inbounds nuw i8, ptr %46, i64 16
  %48 = load ptr, ptr %47, align 8
  %49 = getelementptr inbounds nuw ptr, ptr %44, i64 %indvars.iv57
  %50 = load ptr, ptr %49, align 8
  %51 = getelementptr inbounds nuw i8, ptr %50, i64 16
  %52 = load ptr, ptr %51, align 8
  call void (ptr, ...) @fatal(ptr noundef nonnull @.str.8, i32 noundef %38, ptr noundef %48, ptr noundef %52) #17
  unreachable

._crit_edge:                                      ; preds = %39, %33
  %53 = icmp ult i32 %38, 100
  %indvars.iv.next = add nuw nsw i64 %indvars.iv, 1
  br i1 %53, label %54, label %32, !llvm.loop !13

54:                                               ; preds = %._crit_edge
  %55 = load ptr, ptr @select_context, align 8
  %56 = getelementptr inbounds nuw ptr, ptr %55, i64 %indvars.iv60
  %57 = load ptr, ptr %56, align 8
  %58 = getelementptr inbounds nuw i8, ptr %57, i64 16
  %59 = load ptr, ptr %58, align 8
  call void (ptr, ...) @fatal(ptr noundef nonnull @.str.9, i32 noundef %38, ptr noundef %59) #17
  unreachable

.loopexit:                                        ; preds = %32, %6
  %.1 = phi ptr [ null, %6 ], [ %.032, %32 ]
  %60 = call i32 @pthread_mutex_unlock(ptr noundef nonnull @select_context_lock) #15
  %.not42 = icmp eq i32 %60, 0
  br i1 %.not42, label %63, label %61

61:                                               ; preds = %.loopexit
  %62 = tail call ptr @__errno_location() #16
  store i32 %60, ptr %62, align 4
  call void (ptr, ...) @fatal_abort(ptr noundef nonnull @.str.10, ptr noundef nonnull @__func__.select_g_init) #17
  unreachable

63:                                               ; preds = %.loopexit
  %64 = load ptr, ptr @working_cluster_rec, align 8
  %.not43 = icmp eq ptr %64, null
  br i1 %.not43, label %65, label %79

65:                                               ; preds = %63
  %66 = load ptr, ptr @ops, align 8
  %67 = load i32, ptr @select_context_default, align 4
  %68 = sext i32 %67 to i64
  %69 = getelementptr inbounds %struct.slurm_select_ops_t, ptr %66, i64 %68
  %70 = load ptr, ptr %69, align 8
  %71 = load i32, ptr %70, align 4
  %cond.i.not = icmp eq i32 %71, 102
  br i1 %cond.i.not, label %72, label %79

72:                                               ; preds = %65
  %73 = load i16, ptr getelementptr inbounds nuw (i8, ptr @slurm_conf, i64 1120), align 8
  %74 = zext i16 %73 to i32
  %75 = and i32 %74, 7
  %.not45 = icmp eq i32 %75, 0
  br i1 %.not45, label %79, label %76

76:                                               ; preds = %72
  %77 = load ptr, ptr getelementptr inbounds nuw (i8, ptr @slurm_conf, i64 1104), align 8
  %78 = call ptr @select_type_param_string(i16 noundef zeroext %73)
  call void (ptr, ...) @fatal(ptr noundef nonnull @.str.11, ptr noundef %77, ptr noundef nonnull @select_type_param_string.select_str, i32 noundef %74) #17
  unreachable

79:                                               ; preds = %72, %63, %65
  %.not46 = icmp eq ptr %.1, null
  br i1 %.not46, label %81, label %80

80:                                               ; preds = %79
  call void @list_destroy(ptr noundef nonnull %.1) #15
  br label %81

81:                                               ; preds = %80, %79
  call void @llvm.lifetime.end.p0(i64 16, ptr nonnull %2) #15
  ret i32 0
}